target datalayout = "e-m:e-p270:32:32-p271:32:32-p272:64:64-i64:64-i128:128-f80:128-n8:16:32:64-S128"
target triple = "x86_64-pc-linux-gnu"

%struct.mbedtls_ecp_keypair = type { %struct.mbedtls_ecp_group, %struct.mbedtls_mpi, %struct.mbedtls_ecp_point }
%struct.mbedtls_ecp_group = type { i32, %struct.mbedtls_mpi, %struct.mbedtls_mpi, %struct.mbedtls_mpi, %struct.mbedtls_ecp_point, %struct.mbedtls_mpi, i64, i64, i32, ptr, ptr, ptr, ptr, ptr, i64 }
%struct.mbedtls_mpi = type { ptr, i16, i16 }
%struct.mbedtls_ecp_point = type { %struct.mbedtls_mpi, %struct.mbedtls_mpi, %struct.mbedtls_mpi }

; Function Attrs: nounwind uwtable
define hidden i32 @mbedtls_psa_ecp_load_public_part(ptr noundef %0) #0 {
  %2 = alloca ptr, align 8
  %3 = alloca i32, align 4
  store ptr %0, ptr %2, align 8, !tbaa !17
  call void @llvm.lifetime.start.p0(i64 4, ptr %3) #7
  store i32 0, ptr %3, align 4, !tbaa !15
  %4 = load ptr, ptr %2, align 8, !tbaa !17
  %5 = getelementptr inbounds nuw %struct.mbedtls_ecp_keypair, ptr %4, i32 0, i32 2
  %6 = call i32 @mbedtls_ecp_is_zero(ptr noundef %5)
  %7 = icmp ne i32 %6, 0
  br i1 %7, label %8, label %19

8:                                                ; preds = %1
  %9 = load ptr, ptr %2, align 8, !tbaa !17
  %10 = getelementptr inbounds nuw %struct.mbedtls_ecp_keypair, ptr %9, i32 0, i32 0
  %11 = load ptr, ptr %2, align 8, !tbaa !17
  %12 = getelementptr inbounds nuw %struct.mbedtls_ecp_keypair, ptr %11, i32 0, i32 2
  %13 = load ptr, ptr %2, align 8, !tbaa !17
  %14 = getelementptr inbounds nuw %struct.mbedtls_ecp_keypair, ptr %13, i32 0, i32 1
  %15 = load ptr, ptr %2, align 8, !tbaa !17
  %16 = getelementptr inbounds nuw %struct.mbedtls_ecp_keypair, ptr %15, i32 0, i32 0
  %17 = getelementptr inbounds nuw %struct.mbedtls_ecp_group, ptr %16, i32 0, i32 4
  %18 = call i32 @mbedtls_ecp_mul(ptr noundef %10, ptr noundef %12, ptr noundef %14, ptr noundef %17, ptr noundef @mbedtls_psa_get_random, ptr noundef null)
  store i32 %18, ptr %3, align 4, !tbaa !15
  br label %19

19:                                               ; preds = %8, %1
  %20 = load i32, ptr %3, align 4, !tbaa !15
  %21 = call i32 @mbedtls_to_psa_error(i32 noundef %20)
  call void @llvm.lifetime.end.p0(i64 4, ptr %3) #7
  ret i32 %21
}