; Function Attrs: nounwind uwtable
define hidden i32 @mbedtls_psa_ecp_load_public_part(ptr noundef %0) local_unnamed_addr #0 {
  %2 = getelementptr inbounds nuw i8, ptr %0, i64 208
  %3 = tail call i32 @mbedtls_ecp_is_zero(ptr noundef nonnull %2) #7
  %.not = icmp eq i32 %3, 0
  br i1 %.not, label %8, label %4

4:                                                ; preds = %1
  %5 = getelementptr inbounds nuw i8, ptr %0, i64 192
  %6 = getelementptr inbounds nuw i8, ptr %0, i64 56
  %7 = tail call i32 @mbedtls_ecp_mul(ptr noundef nonnull %0, ptr noundef nonnull %2, ptr noundef nonnull %5, ptr noundef nonnull %6, ptr noundef nonnull @mbedtls_psa_get_random, ptr noundef null) #7
  br label %8

8:                                                ; preds = %4, %1
  %.0 = phi i32 [ %7, %4 ], [ 0, %1 ]
  %9 = tail call i32 @mbedtls_to_psa_error(i32 noundef %.0) #7
  ret i32 %9
}